; Function Attrs: mustprogress uwtable
define noundef zeroext i1 @_ZNK8QuantLib6France14SettlementImpl13isBusinessDayERKNS_4DateE(ptr noundef nonnull align 8 dereferenceable(104) %this, ptr noundef nonnull align 8 dereferenceable(8) %date) unnamed_addr #0 align 2 {
entry:
  %0 = load i64, ptr %date, align 8, !tbaa !30
  %rem.i = srem i64 %0, 7
  %conv.i = trunc nsw i64 %rem.i to i32
  %cmp.i = icmp eq i64 %rem.i, 0
  %cond.i = select i1 %cmp.i, i32 7, i32 %conv.i
  %call.i.i = tail call noundef i32 @_ZNK8QuantLib4Date4yearEv(ptr noundef nonnull align 8 dereferenceable(8) %date)
  %call2.i.i = tail call noundef i64 @_ZN8QuantLib4Date10yearOffsetEi(i32 noundef %call.i.i)
  %sub.i.i = sub nsw i64 %0, %call2.i.i
  %conv.i.i = trunc i64 %sub.i.i to i32
  %call2.i = tail call noundef i32 @_ZNK8QuantLib4Date5monthEv(ptr noundef nonnull align 8 dereferenceable(8) %date)
  %call3.i = tail call noundef i32 @_ZNK8QuantLib4Date4yearEv(ptr noundef nonnull align 8 dereferenceable(8) %date)
  %call4.i = tail call noundef zeroext i1 @_ZN8QuantLib4Date6isLeapEi(i32 noundef %call3.i)
  %call5.i = tail call noundef i32 @_ZN8QuantLib4Date11monthOffsetENS_5MonthEb(i32 noundef %call2.i, i1 noundef zeroext %call4.i)
  %sub.i = sub nsw i32 %conv.i.i, %call5.i
  %1 = load i64, ptr %date, align 8, !tbaa !30
  %call.i = tail call noundef i32 @_ZNK8QuantLib4Date4yearEv(ptr noundef nonnull align 8 dereferenceable(8) %date)
  %call2.i37 = tail call noundef i64 @_ZN8QuantLib4Date10yearOffsetEi(i32 noundef %call.i)
  %call4 = tail call noundef i32 @_ZNK8QuantLib4Date5monthEv(ptr noundef nonnull align 8 dereferenceable(8) %date)
  %call5 = tail call noundef i32 @_ZNK8QuantLib4Date4yearEv(ptr noundef nonnull align 8 dereferenceable(8) %date)
  %call6 = tail call noundef i32 @_ZN8QuantLib8Calendar11WesternImpl12easterMondayEi(i32 noundef %call5)
  %call7 = tail call noundef zeroext i1 @_ZNK8QuantLib8Calendar11WesternImpl9isWeekendENS_7WeekdayE(ptr noundef nonnull align 8 dereferenceable(104) %this, i32 noundef %cond.i)
  br i1 %call7, label %cleanup, label %lor.lhs.false

lor.lhs.false:                                    ; preds = %entry
  %sub.i38 = sub nsw i64 %1, %call2.i37
  %conv.i39 = trunc i64 %sub.i38 to i32
  %cmp = icmp eq i32 %sub.i, 1
  %cmp8 = icmp eq i32 %call4, 1
  %or.cond = and i1 %cmp, %cmp8
  %cmp10 = icmp eq i32 %call6, %conv.i39
  %or.cond32 = or i1 %or.cond, %cmp10
  br i1 %or.cond32, label %cleanup, label %lor.lhs.false11

lor.lhs.false11:                                  ; preds = %lor.lhs.false
  %cmp14 = icmp eq i32 %call4, 5
  %2 = and i32 %sub.i, -3
  %3 = icmp eq i32 %2, 8
  %cmp24 = icmp eq i32 %sub.i, 21
  %4 = or i1 %cmp24, %3
  %or.cond3442 = or i1 %cmp, %4
  %or.cond35 = and i1 %or.cond3442, %cmp14
  br i1 %or.cond35, label %cleanup, label %lor.lhs.false27

lor.lhs.false27:                                  ; preds = %lor.lhs.false11
  %cmp28 = icmp eq i32 %sub.i, 14
  %cmp30 = icmp eq i32 %call4, 7
  %or.cond5 = and i1 %cmp28, %cmp30
  br i1 %or.cond5, label %cleanup, label %lor.lhs.false31

lor.lhs.false31:                                  ; preds = %lor.lhs.false27
  %cmp32 = icmp eq i32 %sub.i, 15
  %cmp34 = icmp eq i32 %call4, 8
  %or.cond6 = and i1 %cmp32, %cmp34
  br i1 %or.cond6, label %cleanup, label %lor.lhs.false35

lor.lhs.false35:                                  ; preds = %lor.lhs.false31
  %cmp38 = icmp eq i32 %call4, 11
  %cmp40 = icmp eq i32 %sub.i, 11
  %or.cond743 = or i1 %cmp, %cmp40
  %or.cond36 = and i1 %or.cond743, %cmp38
  br i1 %or.cond36, label %cleanup, label %lor.lhs.false43

lor.lhs.false43:                                  ; preds = %lor.lhs.false35
  %cmp44 = icmp ne i32 %sub.i, 25
  %cmp46 = icmp ne i32 %call4, 12
  %or.cond9.not = or i1 %cmp44, %cmp46
  br label %cleanup

cleanup:                                          ; preds = %lor.lhs.false43, %entry, %lor.lhs.false, %lor.lhs.false11, %lor.lhs.false27, %lor.lhs.false31, %lor.lhs.false35
  %retval.0 = phi i1 [ false, %lor.lhs.false35 ], [ false, %lor.lhs.false31 ], [ false, %lor.lhs.false27 ], [ false, %lor.lhs.false11 ], [ false, %lor.lhs.false ], [ false, %entry ], [ %or.cond9.not, %lor.lhs.false43 ]
  ret i1 %retval.0
}